

Microchip MPLAB XC8 Assembler V2.32 build 20210201212658 
                                                                                               Tue Aug 24 13:47:15 2021

Microchip MPLAB XC8 C Compiler v2.32 (Free license) build 20210201212658 Og1 
     1                           	processor	16F887
     2                           	pagewidth 120
     3                           	opt	flic
     4                           	psect	cinit,global,class=CODE,merge=1,delta=2
     5                           	psect	bssCOMMON,global,class=COMMON,space=1,delta=1,noexec
     6                           	psect	bssBANK0,global,class=BANK0,space=1,delta=1,noexec
     7                           	psect	cstackCOMMON,global,class=COMMON,space=1,delta=1,noexec
     8                           	psect	cstackBANK0,global,class=BANK0,space=1,delta=1,noexec
     9                           	psect	maintext,global,class=CODE,split=1,delta=2
    10                           	psect	text1,local,class=CODE,merge=1,delta=2
    11                           	psect	text2,local,class=CODE,merge=1,delta=2
    12                           	psect	text3,local,class=CODE,merge=1,delta=2
    13                           	psect	text4,local,class=CODE,merge=1,delta=2
    14                           	psect	text5,local,class=CODE,merge=1,delta=2
    15                           	psect	text6,local,class=CODE,merge=1,delta=2
    16                           	psect	intentry,global,class=CODE,delta=2
    17                           	psect	config,global,abs,ovrld,class=CONFIG,space=4,delta=2,noexec
    18                           	dabs	1,0x7E,2
    19  0000                     
    20                           ; Version 2.20
    21                           ; Generated 12/02/2020 GMT
    22                           ; 
    23                           ; Copyright © 2020, Microchip Technology Inc. and its subsidiaries ("Microchip")
    24                           ; All rights reserved.
    25                           ; 
    26                           ; This software is developed by Microchip Technology Inc. and its subsidiaries ("Microch
      +                          ip").
    27                           ; 
    28                           ; Redistribution and use in source and binary forms, with or without modification, are
    29                           ; permitted provided that the following conditions are met:
    30                           ; 
    31                           ;     1. Redistributions of source code must retain the above copyright notice, this lis
      +                          t of
    32                           ;        conditions and the following disclaimer.
    33                           ; 
    34                           ;     2. Redistributions in binary form must reproduce the above copyright notice, this 
      +                          list
    35                           ;        of conditions and the following disclaimer in the documentation and/or other
    36                           ;        materials provided with the distribution.
    37                           ; 
    38                           ;     3. Microchip's name may not be used to endorse or promote products derived from th
      +                          is
    39                           ;        software without specific prior written permission.
    40                           ; 
    41                           ; THIS SOFTWARE IS PROVIDED BY MICROCHIP "AS IS" AND ANY EXPRESS OR IMPLIED WARRANTIES,
    42                           ; INCLUDING, BUT NOT LIMITED TO, THE IMPLIED WARRANTIES OF MERCHANTABILITY AND FITNESS F
      +                          OR
    43                           ; PURPOSE ARE DISCLAIMED.  IN NO EVENT SHALL MICROCHIP BE LIABLE FOR ANY DIRECT, INDIREC
      +                          T,
    44                           ; INCIDENTAL, SPECIAL, EXEMPLARY, OR CONSEQUENTIAL DAMAGES (INCLUDING BUT NOT LIMITED TO
    45                           ; PROCUREMENT OF SUBSTITUTE GOODS OR SERVICES; LOSS OF USE, DATA OR PROFITS; OR BUSINESS
    46                           ; INTERRUPTION) HOWSOEVER CAUSED AND ON ANY THEORY OF LIABILITY, WHETHER IN CONTRACT, ST
      +                          RICT
    47                           ; LIABILITY, OR TORT (INCLUDING NEGLIGENCE OR OTHERWISE) ARISING IN ANY WAY OUT OF THE U
      +                          SE OF
    48                           ; THIS SOFTWARE, EVEN IF ADVISED OF THE POSSIBILITY OF SUCH DAMAGE.
    49                           ; 
    50                           ; 
    51                           ; Code-generator required, PIC16F887 Definitions
    52                           ; 
    53                           ; SFR Addresses
    54  0000                     	;# 
    55  0001                     	;# 
    56  0002                     	;# 
    57  0003                     	;# 
    58  0004                     	;# 
    59  0005                     	;# 
    60  0006                     	;# 
    61  0007                     	;# 
    62  0008                     	;# 
    63  0009                     	;# 
    64  000A                     	;# 
    65  000B                     	;# 
    66  000C                     	;# 
    67  000D                     	;# 
    68  000E                     	;# 
    69  000E                     	;# 
    70  000F                     	;# 
    71  0010                     	;# 
    72  0011                     	;# 
    73  0012                     	;# 
    74  0013                     	;# 
    75  0014                     	;# 
    76  0015                     	;# 
    77  0015                     	;# 
    78  0016                     	;# 
    79  0017                     	;# 
    80  0018                     	;# 
    81  0019                     	;# 
    82  001A                     	;# 
    83  001B                     	;# 
    84  001B                     	;# 
    85  001C                     	;# 
    86  001D                     	;# 
    87  001E                     	;# 
    88  001F                     	;# 
    89  0081                     	;# 
    90  0085                     	;# 
    91  0086                     	;# 
    92  0087                     	;# 
    93  0088                     	;# 
    94  0089                     	;# 
    95  008C                     	;# 
    96  008D                     	;# 
    97  008E                     	;# 
    98  008F                     	;# 
    99  0090                     	;# 
   100  0091                     	;# 
   101  0092                     	;# 
   102  0093                     	;# 
   103  0093                     	;# 
   104  0093                     	;# 
   105  0094                     	;# 
   106  0095                     	;# 
   107  0096                     	;# 
   108  0097                     	;# 
   109  0098                     	;# 
   110  0099                     	;# 
   111  009A                     	;# 
   112  009B                     	;# 
   113  009C                     	;# 
   114  009D                     	;# 
   115  009E                     	;# 
   116  009F                     	;# 
   117  0105                     	;# 
   118  0107                     	;# 
   119  0108                     	;# 
   120  0109                     	;# 
   121  010C                     	;# 
   122  010C                     	;# 
   123  010D                     	;# 
   124  010E                     	;# 
   125  010F                     	;# 
   126  0185                     	;# 
   127  0187                     	;# 
   128  0188                     	;# 
   129  0189                     	;# 
   130  018C                     	;# 
   131  018D                     	;# 
   132  0000                     	;# 
   133  0001                     	;# 
   134  0002                     	;# 
   135  0003                     	;# 
   136  0004                     	;# 
   137  0005                     	;# 
   138  0006                     	;# 
   139  0007                     	;# 
   140  0008                     	;# 
   141  0009                     	;# 
   142  000A                     	;# 
   143  000B                     	;# 
   144  000C                     	;# 
   145  000D                     	;# 
   146  000E                     	;# 
   147  000E                     	;# 
   148  000F                     	;# 
   149  0010                     	;# 
   150  0011                     	;# 
   151  0012                     	;# 
   152  0013                     	;# 
   153  0014                     	;# 
   154  0015                     	;# 
   155  0015                     	;# 
   156  0016                     	;# 
   157  0017                     	;# 
   158  0018                     	;# 
   159  0019                     	;# 
   160  001A                     	;# 
   161  001B                     	;# 
   162  001B                     	;# 
   163  001C                     	;# 
   164  001D                     	;# 
   165  001E                     	;# 
   166  001F                     	;# 
   167  0081                     	;# 
   168  0085                     	;# 
   169  0086                     	;# 
   170  0087                     	;# 
   171  0088                     	;# 
   172  0089                     	;# 
   173  008C                     	;# 
   174  008D                     	;# 
   175  008E                     	;# 
   176  008F                     	;# 
   177  0090                     	;# 
   178  0091                     	;# 
   179  0092                     	;# 
   180  0093                     	;# 
   181  0093                     	;# 
   182  0093                     	;# 
   183  0094                     	;# 
   184  0095                     	;# 
   185  0096                     	;# 
   186  0097                     	;# 
   187  0098                     	;# 
   188  0099                     	;# 
   189  009A                     	;# 
   190  009B                     	;# 
   191  009C                     	;# 
   192  009D                     	;# 
   193  009E                     	;# 
   194  009F                     	;# 
   195  0105                     	;# 
   196  0107                     	;# 
   197  0108                     	;# 
   198  0109                     	;# 
   199  010C                     	;# 
   200  010C                     	;# 
   201  010D                     	;# 
   202  010E                     	;# 
   203  010F                     	;# 
   204  0185                     	;# 
   205  0187                     	;# 
   206  0188                     	;# 
   207  0189                     	;# 
   208  018C                     	;# 
   209  018D                     	;# 
   210  0000                     	;# 
   211  0001                     	;# 
   212  0002                     	;# 
   213  0003                     	;# 
   214  0004                     	;# 
   215  0005                     	;# 
   216  0006                     	;# 
   217  0007                     	;# 
   218  0008                     	;# 
   219  0009                     	;# 
   220  000A                     	;# 
   221  000B                     	;# 
   222  000C                     	;# 
   223  000D                     	;# 
   224  000E                     	;# 
   225  000E                     	;# 
   226  000F                     	;# 
   227  0010                     	;# 
   228  0011                     	;# 
   229  0012                     	;# 
   230  0013                     	;# 
   231  0014                     	;# 
   232  0015                     	;# 
   233  0015                     	;# 
   234  0016                     	;# 
   235  0017                     	;# 
   236  0018                     	;# 
   237  0019                     	;# 
   238  001A                     	;# 
   239  001B                     	;# 
   240  001B                     	;# 
   241  001C                     	;# 
   242  001D                     	;# 
   243  001E                     	;# 
   244  001F                     	;# 
   245  0081                     	;# 
   246  0085                     	;# 
   247  0086                     	;# 
   248  0087                     	;# 
   249  0088                     	;# 
   250  0089                     	;# 
   251  008C                     	;# 
   252  008D                     	;# 
   253  008E                     	;# 
   254  008F                     	;# 
   255  0090                     	;# 
   256  0091                     	;# 
   257  0092                     	;# 
   258  0093                     	;# 
   259  0093                     	;# 
   260  0093                     	;# 
   261  0094                     	;# 
   262  0095                     	;# 
   263  0096                     	;# 
   264  0097                     	;# 
   265  0098                     	;# 
   266  0099                     	;# 
   267  009A                     	;# 
   268  009B                     	;# 
   269  009C                     	;# 
   270  009D                     	;# 
   271  009E                     	;# 
   272  009F                     	;# 
   273  0105                     	;# 
   274  0107                     	;# 
   275  0108                     	;# 
   276  0109                     	;# 
   277  010C                     	;# 
   278  010C                     	;# 
   279  010D                     	;# 
   280  010E                     	;# 
   281  010F                     	;# 
   282  0185                     	;# 
   283  0187                     	;# 
   284  0188                     	;# 
   285  0189                     	;# 
   286  018C                     	;# 
   287  018D                     	;# 
   288  0000                     	;# 
   289  0001                     	;# 
   290  0002                     	;# 
   291  0003                     	;# 
   292  0004                     	;# 
   293  0005                     	;# 
   294  0006                     	;# 
   295  0007                     	;# 
   296  0008                     	;# 
   297  0009                     	;# 
   298  000A                     	;# 
   299  000B                     	;# 
   300  000C                     	;# 
   301  000D                     	;# 
   302  000E                     	;# 
   303  000E                     	;# 
   304  000F                     	;# 
   305  0010                     	;# 
   306  0011                     	;# 
   307  0012                     	;# 
   308  0013                     	;# 
   309  0014                     	;# 
   310  0015                     	;# 
   311  0015                     	;# 
   312  0016                     	;# 
   313  0017                     	;# 
   314  0018                     	;# 
   315  0019                     	;# 
   316  001A                     	;# 
   317  001B                     	;# 
   318  001B                     	;# 
   319  001C                     	;# 
   320  001D                     	;# 
   321  001E                     	;# 
   322  001F                     	;# 
   323  0081                     	;# 
   324  0085                     	;# 
   325  0086                     	;# 
   326  0087                     	;# 
   327  0088                     	;# 
   328  0089                     	;# 
   329  008C                     	;# 
   330  008D                     	;# 
   331  008E                     	;# 
   332  008F                     	;# 
   333  0090                     	;# 
   334  0091                     	;# 
   335  0092                     	;# 
   336  0093                     	;# 
   337  0093                     	;# 
   338  0093                     	;# 
   339  0094                     	;# 
   340  0095                     	;# 
   341  0096                     	;# 
   342  0097                     	;# 
   343  0098                     	;# 
   344  0099                     	;# 
   345  009A                     	;# 
   346  009B                     	;# 
   347  009C                     	;# 
   348  009D                     	;# 
   349  009E                     	;# 
   350  009F                     	;# 
   351  0105                     	;# 
   352  0107                     	;# 
   353  0108                     	;# 
   354  0109                     	;# 
   355  010C                     	;# 
   356  010C                     	;# 
   357  010D                     	;# 
   358  010E                     	;# 
   359  010F                     	;# 
   360  0185                     	;# 
   361  0187                     	;# 
   362  0188                     	;# 
   363  0189                     	;# 
   364  018C                     	;# 
   365  018D                     	;# 
   366  0000                     	;# 
   367  0001                     	;# 
   368  0002                     	;# 
   369  0003                     	;# 
   370  0004                     	;# 
   371  0005                     	;# 
   372  0006                     	;# 
   373  0007                     	;# 
   374  0008                     	;# 
   375  0009                     	;# 
   376  000A                     	;# 
   377  000B                     	;# 
   378  000C                     	;# 
   379  000D                     	;# 
   380  000E                     	;# 
   381  000E                     	;# 
   382  000F                     	;# 
   383  0010                     	;# 
   384  0011                     	;# 
   385  0012                     	;# 
   386  0013                     	;# 
   387  0014                     	;# 
   388  0015                     	;# 
   389  0015                     	;# 
   390  0016                     	;# 
   391  0017                     	;# 
   392  0018                     	;# 
   393  0019                     	;# 
   394  001A                     	;# 
   395  001B                     	;# 
   396  001B                     	;# 
   397  001C                     	;# 
   398  001D                     	;# 
   399  001E                     	;# 
   400  001F                     	;# 
   401  0081                     	;# 
   402  0085                     	;# 
   403  0086                     	;# 
   404  0087                     	;# 
   405  0088                     	;# 
   406  0089                     	;# 
   407  008C                     	;# 
   408  008D                     	;# 
   409  008E                     	;# 
   410  008F                     	;# 
   411  0090                     	;# 
   412  0091                     	;# 
   413  0092                     	;# 
   414  0093                     	;# 
   415  0093                     	;# 
   416  0093                     	;# 
   417  0094                     	;# 
   418  0095                     	;# 
   419  0096                     	;# 
   420  0097                     	;# 
   421  0098                     	;# 
   422  0099                     	;# 
   423  009A                     	;# 
   424  009B                     	;# 
   425  009C                     	;# 
   426  009D                     	;# 
   427  009E                     	;# 
   428  009F                     	;# 
   429  0105                     	;# 
   430  0107                     	;# 
   431  0108                     	;# 
   432  0109                     	;# 
   433  010C                     	;# 
   434  010C                     	;# 
   435  010D                     	;# 
   436  010E                     	;# 
   437  010F                     	;# 
   438  0185                     	;# 
   439  0187                     	;# 
   440  0188                     	;# 
   441  0189                     	;# 
   442  018C                     	;# 
   443  018D                     	;# 
   444  0014                     _SSPCON	set	20
   445  001E                     _ADRESH	set	30
   446  001F                     _ADCON0bits	set	31
   447  0008                     _PORTDbits	set	8
   448  0006                     _PORTBbits	set	6
   449  0009                     _PORTE	set	9
   450  0008                     _PORTD	set	8
   451  0006                     _PORTB	set	6
   452  0013                     _SSPBUF	set	19
   453  0014                     _SSPCONbits	set	20
   454  000C                     _PIR1bits	set	12
   455  0063                     _SSPIF	set	99
   456  005E                     _PEIE	set	94
   457  005F                     _GIE	set	95
   458  009F                     _ADCON1bits	set	159
   459  0091                     _SSPCON2bits	set	145
   460  0087                     _TRISCbits	set	135
   461  0094                     _SSPSTAT	set	148
   462  0093                     _SSPADD	set	147
   463  0091                     _SSPCON2	set	145
   464  008F                     _OSCCONbits	set	143
   465  009E                     _ADRESL	set	158
   466  0088                     _TRISD	set	136
   467  0087                     _TRISC	set	135
   468  0089                     _TRISEbits	set	137
   469  0086                     _TRISBbits	set	134
   470  0085                     _TRISAbits	set	133
   471  0094                     _SSPSTATbits	set	148
   472  0463                     _SSPIE	set	1123
   473  043C                     _TRISC4	set	1084
   474  043B                     _TRISC3	set	1083
   475  04A0                     _BF	set	1184
   476  0188                     _ANSELbits	set	392
   477  0189                     _ANSELH	set	393
   478  0188                     _ANSEL	set	392
   479                           
   480                           	psect	cinit
   481  000F                     start_initialization:	
   482                           ; #config settings
   483                           
   484  000F                     __initialization:
   485                           
   486                           ; Clear objects allocated to COMMON
   487  000F  01F0               	clrf	__pbssCOMMON& (0+127)
   488  0010  01F1               	clrf	(__pbssCOMMON+1)& (0+127)
   489  0011  01F2               	clrf	(__pbssCOMMON+2)& (0+127)
   490  0012  01F3               	clrf	(__pbssCOMMON+3)& (0+127)
   491  0013  01F4               	clrf	(__pbssCOMMON+4)& (0+127)
   492  0014  01F5               	clrf	(__pbssCOMMON+5)& (0+127)
   493  0015  01F6               	clrf	(__pbssCOMMON+6)& (0+127)
   494  0016  01F7               	clrf	(__pbssCOMMON+7)& (0+127)
   495                           
   496                           ; Clear objects allocated to BANK0
   497  0017  1283               	bcf	3,5	;RP0=0, select bank0
   498  0018  1303               	bcf	3,6	;RP1=0, select bank0
   499  0019  01A0               	clrf	__pbssBANK0& (0+127)
   500  001A  01A1               	clrf	(__pbssBANK0+1)& (0+127)
   501  001B  01A2               	clrf	(__pbssBANK0+2)& (0+127)
   502  001C  01A3               	clrf	(__pbssBANK0+3)& (0+127)
   503  001D  01A4               	clrf	(__pbssBANK0+4)& (0+127)
   504  001E  01A5               	clrf	(__pbssBANK0+5)& (0+127)
   505  001F  01A6               	clrf	(__pbssBANK0+6)& (0+127)
   506  0020  01A7               	clrf	(__pbssBANK0+7)& (0+127)
   507  0021  01A8               	clrf	(__pbssBANK0+8)& (0+127)
   508  0022  01A9               	clrf	(__pbssBANK0+9)& (0+127)
   509  0023  01AA               	clrf	(__pbssBANK0+10)& (0+127)
   510  0024  01AB               	clrf	(__pbssBANK0+11)& (0+127)
   511  0025                     end_of_initialization:	
   512                           ;End of C runtime variable initialization code
   513                           
   514  0025                     __end_of__initialization:
   515  0025  0183               	clrf	3
   516  0026  120A  118A  2955   	ljmp	_main	;jump to C main() function
   517                           
   518                           	psect	bssCOMMON
   519  0070                     __pbssCOMMON:
   520  0070                     _PARQUEO:
   521  0070                     	ds	1
   522  0071                     _BASURA:
   523  0071                     	ds	1
   524  0072                     _abierto_cerrado:
   525  0072                     	ds	1
   526  0073                     _suma_ir:
   527  0073                     	ds	1
   528  0074                     _infrarrojo3:
   529  0074                     	ds	1
   530  0075                     _infrarrojo2:
   531  0075                     	ds	1
   532  0076                     _infrarrojo1:
   533  0076                     	ds	1
   534  0077                     _antirrebote:
   535  0077                     	ds	1
   536                           
   537                           	psect	bssBANK0
   538  0020                     __pbssBANK0:
   539  0020                     _temperatura_aprox:
   540  0020                     	ds	4
   541  0024                     _conversion_total:
   542  0024                     	ds	4
   543  0028                     _conversion1:
   544  0028                     	ds	4
   545                           
   546                           	psect	cstackCOMMON
   547  0078                     __pcstackCOMMON:
   548  0078                     ?_setup:
   549  0078                     ?_infrarrojos:	
   550                           ; 1 bytes @ 0x0
   551                           
   552  0078                     ?_osc_config:	
   553                           ; 1 bytes @ 0x0
   554                           
   555  0078                     ?_ADC_config:	
   556                           ; 1 bytes @ 0x0
   557                           
   558  0078                     ?_I2C_Slave_Init:	
   559                           ; 1 bytes @ 0x0
   560                           
   561  0078                     ?_isr:	
   562                           ; 1 bytes @ 0x0
   563                           
   564  0078                     ??_isr:	
   565                           ; 1 bytes @ 0x0
   566                           
   567  0078                     ?_main:	
   568                           ; 1 bytes @ 0x0
   569                           
   570                           
   571                           ; 1 bytes @ 0x0
   572  0078                     	ds	3
   573  007B                     ??_setup:
   574  007B                     ??_I2C_Slave_Init:	
   575                           ; 1 bytes @ 0x3
   576                           
   577  007B                     ??_main:	
   578                           ; 1 bytes @ 0x3
   579                           
   580                           
   581                           	psect	cstackBANK0
   582  002C                     __pcstackBANK0:	
   583                           ; 1 bytes @ 0x3
   584                           
   585  002C                     ??_infrarrojos:
   586  002C                     ??_osc_config:	
   587                           ; 1 bytes @ 0x0
   588                           
   589  002C                     ??_ADC_config:	
   590                           ; 1 bytes @ 0x0
   591                           
   592  002C                     I2C_Slave_Init@address:	
   593                           ; 1 bytes @ 0x0
   594                           
   595                           
   596                           ; 1 bytes @ 0x0
   597  002C                     	ds	2
   598  002E                     osc_config@freq:
   599                           
   600                           ; 1 bytes @ 0x2
   601  002E                     	ds	1
   602                           
   603                           	psect	maintext
   604  0155                     __pmaintext:	
   605 ;;
   606 ;;Main: autosize = 0, tempsize = 0, incstack = 0, save=0
   607 ;;
   608 ;; *************** function _main *****************
   609 ;; Defined at:
   610 ;;		line 103 in file "main.c"
   611 ;; Parameters:    Size  Location     Type
   612 ;;		None
   613 ;; Auto vars:     Size  Location     Type
   614 ;;		None
   615 ;; Return value:  Size  Location     Type
   616 ;;                  1    wreg      void 
   617 ;; Registers used:
   618 ;;		wreg, fsr0l, fsr0h, status,2, status,0, pclath, cstack
   619 ;; Tracked objects:
   620 ;;		On entry : B00/0
   621 ;;		On exit  : 0/0
   622 ;;		Unchanged: 0/0
   623 ;; Data sizes:     COMMON   BANK0   BANK1   BANK3   BANK2
   624 ;;      Params:         0       0       0       0       0
   625 ;;      Locals:         0       0       0       0       0
   626 ;;      Temps:          0       0       0       0       0
   627 ;;      Totals:         0       0       0       0       0
   628 ;;Total ram usage:        0 bytes
   629 ;; Hardware stack levels required when called: 3
   630 ;; This function calls:
   631 ;;		_infrarrojos
   632 ;;		_setup
   633 ;; This function is called by:
   634 ;;		Startup code after reset
   635 ;; This function uses a non-reentrant model
   636 ;;
   637                           
   638                           
   639                           ;psect for function _main
   640  0155                     _main:
   641  0155                     l1355:	
   642                           ;incstack = 0
   643                           ; Regs used in _main: [wreg-fsr0h+status,2+status,0+pclath+cstack]
   644                           
   645                           
   646                           ;main.c: 106:     setup();
   647  0155  120A  118A  20FD  120A  118A  	fcall	_setup
   648  015A                     l1357:
   649                           
   650                           ;main.c: 109:     {;main.c: 112:         infrarrojos();
   651  015A  120A  118A  20C5  120A  118A  	fcall	_infrarrojos
   652  015F  295A               	goto	l1357
   653  0160  120A  118A  280C   	ljmp	start
   654  0163                     __end_of_main:
   655                           
   656                           	psect	text1
   657  00FD                     __ptext1:	
   658 ;; *************** function _setup *****************
   659 ;; Defined at:
   660 ;;		line 120 in file "main.c"
   661 ;; Parameters:    Size  Location     Type
   662 ;;		None
   663 ;; Auto vars:     Size  Location     Type
   664 ;;		None
   665 ;; Return value:  Size  Location     Type
   666 ;;                  1    wreg      void 
   667 ;; Registers used:
   668 ;;		wreg, fsr0l, fsr0h, status,2, status,0, pclath, cstack
   669 ;; Tracked objects:
   670 ;;		On entry : 0/0
   671 ;;		On exit  : 0/0
   672 ;;		Unchanged: 0/0
   673 ;; Data sizes:     COMMON   BANK0   BANK1   BANK3   BANK2
   674 ;;      Params:         0       0       0       0       0
   675 ;;      Locals:         0       0       0       0       0
   676 ;;      Temps:          0       0       0       0       0
   677 ;;      Totals:         0       0       0       0       0
   678 ;;Total ram usage:        0 bytes
   679 ;; Hardware stack levels used: 1
   680 ;; Hardware stack levels required when called: 2
   681 ;; This function calls:
   682 ;;		_ADC_config
   683 ;;		_I2C_Slave_Init
   684 ;;		_osc_config
   685 ;; This function is called by:
   686 ;;		_main
   687 ;; This function uses a non-reentrant model
   688 ;;
   689                           
   690                           
   691                           ;psect for function _setup
   692  00FD                     _setup:
   693  00FD                     l1307:	
   694                           ;incstack = 0
   695                           ; Regs used in _setup: [wreg-fsr0h+status,2+status,0+pclath+cstack]
   696                           
   697                           
   698                           ;main.c: 123:     ANSEL=0;
   699  00FD  1683               	bsf	3,5	;RP0=1, select bank3
   700  00FE  1703               	bsf	3,6	;RP1=1, select bank3
   701  00FF  0188               	clrf	8	;volatile
   702                           
   703                           ;main.c: 124:     ANSELH=0;
   704  0100  0189               	clrf	9	;volatile
   705  0101                     l1309:
   706                           
   707                           ;main.c: 125:     ANSELbits.ANS0=1;
   708  0101  1408               	bsf	8,0	;volatile
   709  0102                     l1311:
   710                           
   711                           ;main.c: 127:     TRISAbits.TRISA0=1;
   712  0102  1683               	bsf	3,5	;RP0=1, select bank1
   713  0103  1303               	bcf	3,6	;RP1=0, select bank1
   714  0104  1405               	bsf	5,0	;volatile
   715  0105                     l1313:
   716                           
   717                           ;main.c: 128:     TRISBbits.TRISB1=1;
   718  0105  1486               	bsf	6,1	;volatile
   719  0106                     l1315:
   720                           
   721                           ;main.c: 129:     TRISBbits.TRISB2=1;
   722  0106  1506               	bsf	6,2	;volatile
   723  0107                     l1317:
   724                           
   725                           ;main.c: 130:     TRISBbits.TRISB3=1;
   726  0107  1586               	bsf	6,3	;volatile
   727  0108                     l1319:
   728                           
   729                           ;main.c: 131:     TRISEbits.TRISE0=0;
   730  0108  1009               	bcf	9,0	;volatile
   731  0109                     l1321:
   732                           
   733                           ;main.c: 132:     TRISEbits.TRISE1=0;
   734  0109  1089               	bcf	9,1	;volatile
   735                           
   736                           ;main.c: 133:     TRISC=0;
   737  010A  0187               	clrf	7	;volatile
   738                           
   739                           ;main.c: 134:     TRISD=0;
   740  010B  0188               	clrf	8	;volatile
   741                           
   742                           ;main.c: 136:     PORTB=0;
   743  010C  1283               	bcf	3,5	;RP0=0, select bank0
   744  010D  1303               	bcf	3,6	;RP1=0, select bank0
   745  010E  0186               	clrf	6	;volatile
   746                           
   747                           ;main.c: 137:     PORTD=0;
   748  010F  0188               	clrf	8	;volatile
   749                           
   750                           ;main.c: 138:     PORTE=0;
   751  0110  0189               	clrf	9	;volatile
   752  0111                     l1323:
   753                           
   754                           ;main.c: 140:     osc_config(8);
   755  0111  3008               	movlw	8
   756  0112  120A  118A  208C  120A  118A  	fcall	_osc_config
   757  0117                     l1325:
   758                           
   759                           ;main.c: 142:     ADC_config();
   760  0117  120A  118A  213F  120A  118A  	fcall	_ADC_config
   761  011C                     l1327:
   762                           
   763                           ;main.c: 144:     I2C_Slave_Init(0x50);
   764  011C  3050               	movlw	80
   765  011D  120A  118A  2123  120A  118A  	fcall	_I2C_Slave_Init
   766  0122                     l105:
   767  0122  0008               	return
   768  0123                     __end_of_setup:
   769                           
   770                           	psect	text2
   771  008C                     __ptext2:	
   772 ;; *************** function _osc_config *****************
   773 ;; Defined at:
   774 ;;		line 17 in file "Osc_config.c"
   775 ;; Parameters:    Size  Location     Type
   776 ;;  freq            1    wreg     unsigned char 
   777 ;; Auto vars:     Size  Location     Type
   778 ;;  freq            1    2[BANK0 ] unsigned char 
   779 ;; Return value:  Size  Location     Type
   780 ;;                  1    wreg      void 
   781 ;; Registers used:
   782 ;;		wreg, fsr0l, fsr0h, status,2, status,0
   783 ;; Tracked objects:
   784 ;;		On entry : 0/0
   785 ;;		On exit  : 0/0
   786 ;;		Unchanged: 0/0
   787 ;; Data sizes:     COMMON   BANK0   BANK1   BANK3   BANK2
   788 ;;      Params:         0       0       0       0       0
   789 ;;      Locals:         0       1       0       0       0
   790 ;;      Temps:          0       2       0       0       0
   791 ;;      Totals:         0       3       0       0       0
   792 ;;Total ram usage:        3 bytes
   793 ;; Hardware stack levels used: 1
   794 ;; Hardware stack levels required when called: 1
   795 ;; This function calls:
   796 ;;		Nothing
   797 ;; This function is called by:
   798 ;;		_setup
   799 ;; This function uses a non-reentrant model
   800 ;;
   801                           
   802                           
   803                           ;psect for function _osc_config
   804  008C                     _osc_config:
   805                           
   806                           ;incstack = 0
   807                           ; Regs used in _osc_config: [wreg-fsr0h+status,2+status,0]
   808                           ;osc_config@freq stored from wreg
   809  008C  1283               	bcf	3,5	;RP0=0, select bank0
   810  008D  1303               	bcf	3,6	;RP1=0, select bank0
   811  008E  00AE               	movwf	osc_config@freq
   812  008F                     l1257:
   813                           
   814                           ;Osc_config.c: 17: void osc_config(uint8_t freq);Osc_config.c: 18: {;Osc_config.c: 19:  
      +                             switch(freq)
   815  008F  28AE               	goto	l1277
   816  0090                     l1259:
   817                           
   818                           ;Osc_config.c: 22:             OSCCONbits.IRCF=0b100;
   819  0090  1683               	bsf	3,5	;RP0=1, select bank1
   820  0091  1303               	bcf	3,6	;RP1=0, select bank1
   821  0092  080F               	movf	15,w	;volatile
   822  0093  398F               	andlw	-113
   823  0094  3840               	iorlw	64
   824  0095  008F               	movwf	15	;volatile
   825  0096                     l1261:
   826                           
   827                           ;Osc_config.c: 23:             OSCCONbits.SCS=1;
   828  0096  140F               	bsf	15,0	;volatile
   829                           
   830                           ;Osc_config.c: 24:             break;
   831  0097  28C4               	goto	l129
   832  0098                     l1263:
   833                           
   834                           ;Osc_config.c: 27:             OSCCONbits.IRCF=0b101;
   835  0098  1683               	bsf	3,5	;RP0=1, select bank1
   836  0099  1303               	bcf	3,6	;RP1=0, select bank1
   837  009A  080F               	movf	15,w	;volatile
   838  009B  398F               	andlw	-113
   839  009C  3850               	iorlw	80
   840  009D  008F               	movwf	15	;volatile
   841  009E                     l1265:
   842                           
   843                           ;Osc_config.c: 28:             OSCCONbits.SCS=1;
   844  009E  140F               	bsf	15,0	;volatile
   845                           
   846                           ;Osc_config.c: 29:             break;
   847  009F  28C4               	goto	l129
   848  00A0                     l1267:
   849                           
   850                           ;Osc_config.c: 32:             OSCCONbits.IRCF=0b110;
   851  00A0  1683               	bsf	3,5	;RP0=1, select bank1
   852  00A1  1303               	bcf	3,6	;RP1=0, select bank1
   853  00A2  080F               	movf	15,w	;volatile
   854  00A3  398F               	andlw	-113
   855  00A4  3860               	iorlw	96
   856  00A5  008F               	movwf	15	;volatile
   857  00A6                     l1269:
   858                           
   859                           ;Osc_config.c: 33:             OSCCONbits.SCS=1;
   860  00A6  140F               	bsf	15,0	;volatile
   861                           
   862                           ;Osc_config.c: 34:             break;
   863  00A7  28C4               	goto	l129
   864  00A8                     l1271:
   865                           
   866                           ;Osc_config.c: 37:             OSCCONbits.IRCF=0b111;
   867  00A8  3070               	movlw	112
   868  00A9  1683               	bsf	3,5	;RP0=1, select bank1
   869  00AA  1303               	bcf	3,6	;RP1=0, select bank1
   870  00AB  048F               	iorwf	15,f	;volatile
   871  00AC                     l1273:
   872                           
   873                           ;Osc_config.c: 38:             OSCCONbits.SCS=1;
   874  00AC  140F               	bsf	15,0	;volatile
   875                           
   876                           ;Osc_config.c: 39:             break;
   877  00AD  28C4               	goto	l129
   878  00AE                     l1277:
   879  00AE  082E               	movf	osc_config@freq,w
   880  00AF  00AC               	movwf	??_osc_config
   881  00B0  01AD               	clrf	??_osc_config+1
   882                           
   883                           ; Switch on 2 bytes has been partitioned into a top level switch of size 1, and 1 sub-sw
      +                          itches
   884                           ; Switch size 1, requested type "simple"
   885                           ; Number of cases is 1, Range of values is 0 to 0
   886                           ; switch strategies available:
   887                           ; Name         Instructions Cycles
   888                           ; simple_byte            4     3 (average)
   889                           ; direct_byte           11     8 (fixed)
   890                           ; jumptable            260     6 (fixed)
   891                           ;	Chosen strategy is simple_byte
   892  00B1  082D               	movf	??_osc_config+1,w
   893  00B2  3A00               	xorlw	0	; case 0
   894  00B3  1903               	skipnz
   895  00B4  28B6               	goto	l1389
   896  00B5  28C4               	goto	l129
   897  00B6                     l1389:
   898                           
   899                           ; Switch size 1, requested type "simple"
   900                           ; Number of cases is 4, Range of values is 1 to 8
   901                           ; switch strategies available:
   902                           ; Name         Instructions Cycles
   903                           ; simple_byte           13     7 (average)
   904                           ; direct_byte           35    11 (fixed)
   905                           ; jumptable            263     9 (fixed)
   906                           ;	Chosen strategy is simple_byte
   907  00B6  082C               	movf	??_osc_config,w
   908  00B7  3A01               	xorlw	1	; case 1
   909  00B8  1903               	skipnz
   910  00B9  2890               	goto	l1259
   911  00BA  3A03               	xorlw	3	; case 2
   912  00BB  1903               	skipnz
   913  00BC  2898               	goto	l1263
   914  00BD  3A06               	xorlw	6	; case 4
   915  00BE  1903               	skipnz
   916  00BF  28A0               	goto	l1267
   917  00C0  3A0C               	xorlw	12	; case 8
   918  00C1  1903               	skipnz
   919  00C2  28A8               	goto	l1271
   920  00C3  28C4               	goto	l129
   921  00C4                     l129:
   922  00C4  0008               	return
   923  00C5                     __end_of_osc_config:
   924                           
   925                           	psect	text3
   926  0123                     __ptext3:	
   927 ;; *************** function _I2C_Slave_Init *****************
   928 ;; Defined at:
   929 ;;		line 93 in file "I2C.c"
   930 ;; Parameters:    Size  Location     Type
   931 ;;  address         1    wreg     unsigned char 
   932 ;; Auto vars:     Size  Location     Type
   933 ;;  address         1    0[BANK0 ] unsigned char 
   934 ;; Return value:  Size  Location     Type
   935 ;;                  1    wreg      void 
   936 ;; Registers used:
   937 ;;		wreg
   938 ;; Tracked objects:
   939 ;;		On entry : 0/0
   940 ;;		On exit  : 0/0
   941 ;;		Unchanged: 0/0
   942 ;; Data sizes:     COMMON   BANK0   BANK1   BANK3   BANK2
   943 ;;      Params:         0       0       0       0       0
   944 ;;      Locals:         0       1       0       0       0
   945 ;;      Temps:          0       0       0       0       0
   946 ;;      Totals:         0       1       0       0       0
   947 ;;Total ram usage:        1 bytes
   948 ;; Hardware stack levels used: 1
   949 ;; Hardware stack levels required when called: 1
   950 ;; This function calls:
   951 ;;		Nothing
   952 ;; This function is called by:
   953 ;;		_setup
   954 ;; This function uses a non-reentrant model
   955 ;;
   956                           
   957                           
   958                           ;psect for function _I2C_Slave_Init
   959  0123                     _I2C_Slave_Init:
   960                           
   961                           ;incstack = 0
   962                           ; Regs used in _I2C_Slave_Init: [wreg]
   963                           ;I2C_Slave_Init@address stored from wreg
   964  0123  1283               	bcf	3,5	;RP0=0, select bank0
   965  0124  1303               	bcf	3,6	;RP1=0, select bank0
   966  0125  00AC               	movwf	I2C_Slave_Init@address
   967  0126                     l1293:
   968                           
   969                           ;I2C.c: 93: void I2C_Slave_Init(uint8_t address);I2C.c: 94: {;I2C.c: 95:     SSPADD = ad
      +                          dress;
   970  0126  082C               	movf	I2C_Slave_Init@address,w
   971  0127  1683               	bsf	3,5	;RP0=1, select bank1
   972  0128  1303               	bcf	3,6	;RP1=0, select bank1
   973  0129  0093               	movwf	19	;volatile
   974                           
   975                           ;I2C.c: 96:     SSPCON = 0x36;
   976  012A  3036               	movlw	54
   977  012B  1283               	bcf	3,5	;RP0=0, select bank0
   978  012C  1303               	bcf	3,6	;RP1=0, select bank0
   979  012D  0094               	movwf	20	;volatile
   980                           
   981                           ;I2C.c: 97:     SSPSTAT = 0x80;
   982  012E  3080               	movlw	128
   983  012F  1683               	bsf	3,5	;RP0=1, select bank1
   984  0130  1303               	bcf	3,6	;RP1=0, select bank1
   985  0131  0094               	movwf	20	;volatile
   986                           
   987                           ;I2C.c: 98:     SSPCON2 = 0x01;
   988  0132  3001               	movlw	1
   989  0133  0091               	movwf	17	;volatile
   990  0134                     l1295:
   991                           
   992                           ;I2C.c: 99:     TRISC3 = 1;
   993  0134  1587               	bsf	7,3	;volatile
   994  0135                     l1297:
   995                           
   996                           ;I2C.c: 100:     TRISC4 = 1;
   997  0135  1607               	bsf	7,4	;volatile
   998  0136                     l1299:
   999                           
  1000                           ;I2C.c: 101:     GIE = 1;
  1001  0136  178B               	bsf	11,7	;volatile
  1002  0137                     l1301:
  1003                           
  1004                           ;I2C.c: 102:     PEIE = 1;
  1005  0137  170B               	bsf	11,6	;volatile
  1006  0138                     l1303:
  1007                           
  1008                           ;I2C.c: 103:     SSPIF = 0;
  1009  0138  1283               	bcf	3,5	;RP0=0, select bank0
  1010  0139  1303               	bcf	3,6	;RP1=0, select bank0
  1011  013A  118C               	bcf	12,3	;volatile
  1012  013B                     l1305:
  1013                           
  1014                           ;I2C.c: 104:     SSPIE = 1;
  1015  013B  1683               	bsf	3,5	;RP0=1, select bank1
  1016  013C  1303               	bcf	3,6	;RP1=0, select bank1
  1017  013D  158C               	bsf	12,3	;volatile
  1018  013E                     l184:
  1019  013E  0008               	return
  1020  013F                     __end_of_I2C_Slave_Init:
  1021                           
  1022                           	psect	text4
  1023  013F                     __ptext4:	
  1024 ;; *************** function _ADC_config *****************
  1025 ;; Defined at:
  1026 ;;		line 22 in file "ADC_CONFIG.c"
  1027 ;; Parameters:    Size  Location     Type
  1028 ;;		None
  1029 ;; Auto vars:     Size  Location     Type
  1030 ;;		None
  1031 ;; Return value:  Size  Location     Type
  1032 ;;                  1    wreg      void 
  1033 ;; Registers used:
  1034 ;;		wreg, status,2, status,0
  1035 ;; Tracked objects:
  1036 ;;		On entry : 0/0
  1037 ;;		On exit  : 0/0
  1038 ;;		Unchanged: 0/0
  1039 ;; Data sizes:     COMMON   BANK0   BANK1   BANK3   BANK2
  1040 ;;      Params:         0       0       0       0       0
  1041 ;;      Locals:         0       0       0       0       0
  1042 ;;      Temps:          0       1       0       0       0
  1043 ;;      Totals:         0       1       0       0       0
  1044 ;;Total ram usage:        1 bytes
  1045 ;; Hardware stack levels used: 1
  1046 ;; Hardware stack levels required when called: 1
  1047 ;; This function calls:
  1048 ;;		Nothing
  1049 ;; This function is called by:
  1050 ;;		_setup
  1051 ;; This function uses a non-reentrant model
  1052 ;;
  1053                           
  1054                           
  1055                           ;psect for function _ADC_config
  1056  013F                     _ADC_config:
  1057  013F                     l1285:	
  1058                           ;incstack = 0
  1059                           ; Regs used in _ADC_config: [wreg+status,2+status,0]
  1060                           
  1061                           
  1062                           ;ADC_CONFIG.c: 25:     ADCON1bits.ADFM = 1 ;
  1063  013F  1683               	bsf	3,5	;RP0=1, select bank1
  1064  0140  1303               	bcf	3,6	;RP1=0, select bank1
  1065  0141  179F               	bsf	31,7	;volatile
  1066                           
  1067                           ;ADC_CONFIG.c: 26:     ADCON1bits.VCFG0 = 0 ;
  1068  0142  121F               	bcf	31,4	;volatile
  1069                           
  1070                           ;ADC_CONFIG.c: 27:     ADCON1bits.VCFG1 = 0 ;
  1071  0143  129F               	bcf	31,5	;volatile
  1072  0144                     l1287:
  1073                           
  1074                           ;ADC_CONFIG.c: 29:     ADCON0bits.ADCS = 0b00;
  1075  0144  303F               	movlw	-193
  1076  0145  1283               	bcf	3,5	;RP0=0, select bank0
  1077  0146  1303               	bcf	3,6	;RP1=0, select bank0
  1078  0147  059F               	andwf	31,f	;volatile
  1079                           
  1080                           ;ADC_CONFIG.c: 30:     ADCON0bits.CHS = 0;
  1081  0148  30C3               	movlw	-61
  1082  0149  059F               	andwf	31,f	;volatile
  1083  014A                     l1289:
  1084                           
  1085                           ;ADC_CONFIG.c: 31:     _delay((unsigned long)((100)*(8000000/4000000.0)));
  1086  014A  3041               	movlw	65
  1087  014B  1283               	bcf	3,5	;RP0=0, select bank0
  1088  014C  1303               	bcf	3,6	;RP1=0, select bank0
  1089  014D  00AC               	movwf	??_ADC_config
  1090  014E                     u887:
  1091  014E  0BAC               	decfsz	??_ADC_config,f
  1092  014F  294E               	goto	u887
  1093  0150  2951               	nop2
  1094  0151                     l1291:
  1095                           
  1096                           ;ADC_CONFIG.c: 32:     ADCON0bits.ADON = 1 ;
  1097  0151  1283               	bcf	3,5	;RP0=0, select bank0
  1098  0152  1303               	bcf	3,6	;RP1=0, select bank0
  1099  0153  141F               	bsf	31,0	;volatile
  1100  0154                     l193:
  1101  0154  0008               	return
  1102  0155                     __end_of_ADC_config:
  1103                           
  1104                           	psect	text5
  1105  00C5                     __ptext5:	
  1106 ;; *************** function _infrarrojos *****************
  1107 ;; Defined at:
  1108 ;;		line 153 in file "main.c"
  1109 ;; Parameters:    Size  Location     Type
  1110 ;;		None
  1111 ;; Auto vars:     Size  Location     Type
  1112 ;;		None
  1113 ;; Return value:  Size  Location     Type
  1114 ;;                  1    wreg      void 
  1115 ;; Registers used:
  1116 ;;		wreg, status,2, status,0
  1117 ;; Tracked objects:
  1118 ;;		On entry : 0/0
  1119 ;;		On exit  : 0/0
  1120 ;;		Unchanged: 0/0
  1121 ;; Data sizes:     COMMON   BANK0   BANK1   BANK3   BANK2
  1122 ;;      Params:         0       0       0       0       0
  1123 ;;      Locals:         0       0       0       0       0
  1124 ;;      Temps:          0       2       0       0       0
  1125 ;;      Totals:         0       2       0       0       0
  1126 ;;Total ram usage:        2 bytes
  1127 ;; Hardware stack levels used: 1
  1128 ;; Hardware stack levels required when called: 1
  1129 ;; This function calls:
  1130 ;;		Nothing
  1131 ;; This function is called by:
  1132 ;;		_main
  1133 ;; This function uses a non-reentrant model
  1134 ;;
  1135                           
  1136                           
  1137                           ;psect for function _infrarrojos
  1138  00C5                     _infrarrojos:
  1139  00C5                     l1329:	
  1140                           ;incstack = 0
  1141                           ; Regs used in _infrarrojos: [wreg+status,2+status,0]
  1142                           
  1143                           
  1144                           ;main.c: 156:     if (PORTBbits.RB1==1)
  1145  00C5  1283               	bcf	3,5	;RP0=0, select bank0
  1146  00C6  1303               	bcf	3,6	;RP1=0, select bank0
  1147  00C7  1C86               	btfss	6,1	;volatile
  1148  00C8  28CA               	goto	u821
  1149  00C9  28CB               	goto	u820
  1150  00CA                     u821:
  1151  00CA  28CF               	goto	l108
  1152  00CB                     u820:
  1153  00CB                     l1331:
  1154                           
  1155                           ;main.c: 157:     {;main.c: 158:         PORTDbits.RD0=1;
  1156  00CB  1408               	bsf	8,0	;volatile
  1157                           
  1158                           ;main.c: 159:         PORTDbits.RD1=0;
  1159  00CC  1088               	bcf	8,1	;volatile
  1160                           
  1161                           ;main.c: 160:         infrarrojo1=1;
  1162  00CD  01F6               	clrf	_infrarrojo1
  1163  00CE  0AF6               	incf	_infrarrojo1,f
  1164  00CF                     l108:	
  1165                           ;main.c: 161:     }
  1166                           
  1167                           
  1168                           ;main.c: 162:     if (PORTBbits.RB1==0)
  1169  00CF  1886               	btfsc	6,1	;volatile
  1170  00D0  28D2               	goto	u831
  1171  00D1  28D3               	goto	u830
  1172  00D2                     u831:
  1173  00D2  28D6               	goto	l1337
  1174  00D3                     u830:
  1175  00D3                     l1333:
  1176                           
  1177                           ;main.c: 163:     {;main.c: 164:         PORTDbits.RD0=0;
  1178  00D3  1008               	bcf	8,0	;volatile
  1179                           
  1180                           ;main.c: 165:         PORTDbits.RD1=1;
  1181  00D4  1488               	bsf	8,1	;volatile
  1182  00D5                     l1335:
  1183                           
  1184                           ;main.c: 166:         infrarrojo1=0;
  1185  00D5  01F6               	clrf	_infrarrojo1
  1186  00D6                     l1337:
  1187                           
  1188                           ;main.c: 169:     if (PORTBbits.RB2==1)
  1189  00D6  1D06               	btfss	6,2	;volatile
  1190  00D7  28D9               	goto	u841
  1191  00D8  28DA               	goto	u840
  1192  00D9                     u841:
  1193  00D9  28DE               	goto	l110
  1194  00DA                     u840:
  1195  00DA                     l1339:
  1196                           
  1197                           ;main.c: 170:     {;main.c: 171:         PORTDbits.RD2=1;
  1198  00DA  1508               	bsf	8,2	;volatile
  1199                           
  1200                           ;main.c: 172:         PORTDbits.RD3=0;
  1201  00DB  1188               	bcf	8,3	;volatile
  1202                           
  1203                           ;main.c: 173:         infrarrojo2=1;
  1204  00DC  01F5               	clrf	_infrarrojo2
  1205  00DD  0AF5               	incf	_infrarrojo2,f
  1206  00DE                     l110:	
  1207                           ;main.c: 174:     }
  1208                           
  1209                           
  1210                           ;main.c: 175:     if (PORTBbits.RB2==0)
  1211  00DE  1906               	btfsc	6,2	;volatile
  1212  00DF  28E1               	goto	u851
  1213  00E0  28E2               	goto	u850
  1214  00E1                     u851:
  1215  00E1  28E5               	goto	l1345
  1216  00E2                     u850:
  1217  00E2                     l1341:
  1218                           
  1219                           ;main.c: 176:     {;main.c: 177:         PORTDbits.RD2=0;
  1220  00E2  1108               	bcf	8,2	;volatile
  1221                           
  1222                           ;main.c: 178:         PORTDbits.RD3=1;
  1223  00E3  1588               	bsf	8,3	;volatile
  1224  00E4                     l1343:
  1225                           
  1226                           ;main.c: 179:         infrarrojo2=0;
  1227  00E4  01F5               	clrf	_infrarrojo2
  1228  00E5                     l1345:
  1229                           
  1230                           ;main.c: 182:     if (PORTBbits.RB3==1)
  1231  00E5  1D86               	btfss	6,3	;volatile
  1232  00E6  28E8               	goto	u861
  1233  00E7  28E9               	goto	u860
  1234  00E8                     u861:
  1235  00E8  28ED               	goto	l112
  1236  00E9                     u860:
  1237  00E9                     l1347:
  1238                           
  1239                           ;main.c: 183:     {;main.c: 184:         PORTDbits.RD4=1;
  1240  00E9  1608               	bsf	8,4	;volatile
  1241                           
  1242                           ;main.c: 185:         PORTDbits.RD5=0;
  1243  00EA  1288               	bcf	8,5	;volatile
  1244                           
  1245                           ;main.c: 186:         infrarrojo3=1;
  1246  00EB  01F4               	clrf	_infrarrojo3
  1247  00EC  0AF4               	incf	_infrarrojo3,f
  1248  00ED                     l112:	
  1249                           ;main.c: 187:     }
  1250                           
  1251                           
  1252                           ;main.c: 188:     if (PORTBbits.RB3==0)
  1253  00ED  1986               	btfsc	6,3	;volatile
  1254  00EE  28F0               	goto	u871
  1255  00EF  28F1               	goto	u870
  1256  00F0                     u871:
  1257  00F0  28F4               	goto	l1353
  1258  00F1                     u870:
  1259  00F1                     l1349:
  1260                           
  1261                           ;main.c: 189:     {;main.c: 190:         PORTDbits.RD4=0;
  1262  00F1  1208               	bcf	8,4	;volatile
  1263                           
  1264                           ;main.c: 191:         PORTDbits.RD5=1;
  1265  00F2  1688               	bsf	8,5	;volatile
  1266  00F3                     l1351:
  1267                           
  1268                           ;main.c: 192:         infrarrojo3=0;
  1269  00F3  01F4               	clrf	_infrarrojo3
  1270  00F4                     l1353:
  1271                           
  1272                           ;main.c: 194:     suma_ir=infrarrojo1+infrarrojo2+infrarrojo3;
  1273  00F4  0875               	movf	_infrarrojo2,w
  1274  00F5  0776               	addwf	_infrarrojo1,w
  1275  00F6  00AC               	movwf	??_infrarrojos
  1276  00F7  0874               	movf	_infrarrojo3,w
  1277  00F8  072C               	addwf	??_infrarrojos,w
  1278  00F9  00AD               	movwf	??_infrarrojos+1
  1279  00FA  082D               	movf	??_infrarrojos+1,w
  1280  00FB  00F3               	movwf	_suma_ir
  1281  00FC                     l114:
  1282  00FC  0008               	return
  1283  00FD                     __end_of_infrarrojos:
  1284                           
  1285                           	psect	text6
  1286  0029                     __ptext6:	
  1287 ;; *************** function _isr *****************
  1288 ;; Defined at:
  1289 ;;		line 63 in file "main.c"
  1290 ;; Parameters:    Size  Location     Type
  1291 ;;		None
  1292 ;; Auto vars:     Size  Location     Type
  1293 ;;		None
  1294 ;; Return value:  Size  Location     Type
  1295 ;;                  1    wreg      void 
  1296 ;; Registers used:
  1297 ;;		wreg
  1298 ;; Tracked objects:
  1299 ;;		On entry : 0/0
  1300 ;;		On exit  : 0/0
  1301 ;;		Unchanged: 0/0
  1302 ;; Data sizes:     COMMON   BANK0   BANK1   BANK3   BANK2
  1303 ;;      Params:         0       0       0       0       0
  1304 ;;      Locals:         0       0       0       0       0
  1305 ;;      Temps:          3       0       0       0       0
  1306 ;;      Totals:         3       0       0       0       0
  1307 ;;Total ram usage:        3 bytes
  1308 ;; Hardware stack levels used: 1
  1309 ;; This function calls:
  1310 ;;		Nothing
  1311 ;; This function is called by:
  1312 ;;		Interrupt level 1
  1313 ;; This function uses a non-reentrant model
  1314 ;;
  1315                           
  1316                           
  1317                           ;psect for function _isr
  1318  0029                     _isr:
  1319  0029                     i1l885:
  1320                           
  1321                           ;main.c: 66:     if(PIR1bits.SSPIF == 1){
  1322  0029  1283               	bcf	3,5	;RP0=0, select bank0
  1323  002A  1303               	bcf	3,6	;RP1=0, select bank0
  1324  002B  1D8C               	btfss	12,3	;volatile
  1325  002C  282E               	goto	u9_21
  1326  002D  282F               	goto	u9_20
  1327  002E                     u9_21:
  1328  002E  2885               	goto	i1l94
  1329  002F                     u9_20:
  1330  002F                     i1l887:
  1331                           
  1332                           ;main.c: 68:         SSPCONbits.CKP = 0;
  1333  002F  1214               	bcf	20,4	;volatile
  1334                           
  1335                           ;main.c: 70:         if ((SSPCONbits.SSPOV) || (SSPCONbits.WCOL)){
  1336  0030  1B14               	btfsc	20,6	;volatile
  1337  0031  2833               	goto	u10_21
  1338  0032  2834               	goto	u10_20
  1339  0033                     u10_21:
  1340  0033  2838               	goto	i1l891
  1341  0034                     u10_20:
  1342  0034                     i1l889:
  1343  0034  1F94               	btfss	20,7	;volatile
  1344  0035  2837               	goto	u11_21
  1345  0036  2838               	goto	u11_20
  1346  0037                     u11_21:
  1347  0037  283F               	goto	i1l899
  1348  0038                     u11_20:
  1349  0038                     i1l891:
  1350                           
  1351                           ;main.c: 71:             abierto_cerrado = SSPBUF;
  1352  0038  0813               	movf	19,w	;volatile
  1353  0039  00F8               	movwf	??_isr
  1354  003A  0878               	movf	??_isr,w
  1355  003B  00F2               	movwf	_abierto_cerrado
  1356  003C                     i1l893:
  1357                           
  1358                           ;main.c: 72:             SSPCONbits.SSPOV = 0;
  1359  003C  1314               	bcf	20,6	;volatile
  1360  003D                     i1l895:
  1361                           
  1362                           ;main.c: 73:             SSPCONbits.WCOL = 0;
  1363  003D  1394               	bcf	20,7	;volatile
  1364  003E                     i1l897:
  1365                           
  1366                           ;main.c: 74:             SSPCONbits.CKP = 1;
  1367  003E  1614               	bsf	20,4	;volatile
  1368  003F                     i1l899:
  1369                           
  1370                           ;main.c: 77:         if(!SSPSTATbits.D_nA && !SSPSTATbits.R_nW)
  1371  003F  1683               	bsf	3,5	;RP0=1, select bank1
  1372  0040  1303               	bcf	3,6	;RP1=0, select bank1
  1373  0041  1A94               	btfsc	20,5	;volatile
  1374  0042  2844               	goto	u12_21
  1375  0043  2845               	goto	u12_20
  1376  0044                     u12_21:
  1377  0044  2862               	goto	i1l85
  1378  0045                     u12_20:
  1379  0045                     i1l901:
  1380  0045  1914               	btfsc	20,2	;volatile
  1381  0046  2848               	goto	u13_21
  1382  0047  2849               	goto	u13_20
  1383  0048                     u13_21:
  1384  0048  2862               	goto	i1l85
  1385  0049                     u13_20:
  1386  0049                     i1l903:
  1387                           
  1388                           ;main.c: 78:         {;main.c: 79:             abierto_cerrado = SSPBUF;
  1389  0049  1283               	bcf	3,5	;RP0=0, select bank0
  1390  004A  1303               	bcf	3,6	;RP1=0, select bank0
  1391  004B  0813               	movf	19,w	;volatile
  1392  004C  00F8               	movwf	??_isr
  1393  004D  0878               	movf	??_isr,w
  1394  004E  00F2               	movwf	_abierto_cerrado
  1395  004F                     i1l905:
  1396                           
  1397                           ;main.c: 80:             PIR1bits.SSPIF = 0;
  1398  004F  118C               	bcf	12,3	;volatile
  1399  0050                     i1l907:
  1400                           
  1401                           ;main.c: 81:             SSPCONbits.CKP = 1;
  1402  0050  1614               	bsf	20,4	;volatile
  1403  0051                     i1l86:	
  1404                           ;main.c: 82:             while(!SSPSTATbits.BF);
  1405                           
  1406  0051  1683               	bsf	3,5	;RP0=1, select bank1
  1407  0052  1303               	bcf	3,6	;RP1=0, select bank1
  1408  0053  1C14               	btfss	20,0	;volatile
  1409  0054  2856               	goto	u14_21
  1410  0055  2857               	goto	u14_20
  1411  0056                     u14_21:
  1412  0056  2851               	goto	i1l86
  1413  0057                     u14_20:
  1414  0057                     i1l909:
  1415                           
  1416                           ;main.c: 83:             BASURA = SSPBUF;
  1417  0057  1283               	bcf	3,5	;RP0=0, select bank0
  1418  0058  1303               	bcf	3,6	;RP1=0, select bank0
  1419  0059  0813               	movf	19,w	;volatile
  1420  005A  00F8               	movwf	??_isr
  1421  005B  0878               	movf	??_isr,w
  1422  005C  00F1               	movwf	_BASURA
  1423                           
  1424                           ;main.c: 84:             _delay((unsigned long)((200)*(8000000/4000000.0)));
  1425  005D  3085               	movlw	133
  1426  005E  00F8               	movwf	??_isr
  1427  005F                     u89_27:
  1428  005F  0BF8               	decfsz	??_isr,f
  1429  0060  285F               	goto	u89_27
  1430                           
  1431                           ;main.c: 86:         }
  1432  0061  2882               	goto	i1l89
  1433  0062                     i1l85:	
  1434                           ;main.c: 87:         else if(!SSPSTATbits.D_nA && SSPSTATbits.R_nW){
  1435                           
  1436  0062  1A94               	btfsc	20,5	;volatile
  1437  0063  2865               	goto	u15_21
  1438  0064  2866               	goto	u15_20
  1439  0065                     u15_21:
  1440  0065  2882               	goto	i1l89
  1441  0066                     u15_20:
  1442  0066                     i1l911:
  1443  0066  1D14               	btfss	20,2	;volatile
  1444  0067  2869               	goto	u16_21
  1445  0068  286A               	goto	u16_20
  1446  0069                     u16_21:
  1447  0069  2882               	goto	i1l89
  1448  006A                     u16_20:
  1449  006A                     i1l913:
  1450                           
  1451                           ;main.c: 88:             abierto_cerrado = SSPBUF;
  1452  006A  1283               	bcf	3,5	;RP0=0, select bank0
  1453  006B  1303               	bcf	3,6	;RP1=0, select bank0
  1454  006C  0813               	movf	19,w	;volatile
  1455  006D  00F8               	movwf	??_isr
  1456  006E  0878               	movf	??_isr,w
  1457  006F  00F2               	movwf	_abierto_cerrado
  1458  0070                     i1l915:
  1459                           
  1460                           ;main.c: 89:             BF = 0;
  1461  0070  1683               	bsf	3,5	;RP0=1, select bank1
  1462  0071  1303               	bcf	3,6	;RP1=0, select bank1
  1463  0072  1014               	bcf	20,0	;volatile
  1464                           
  1465                           ;main.c: 90:             SSPBUF = suma_ir;
  1466  0073  0873               	movf	_suma_ir,w
  1467  0074  1283               	bcf	3,5	;RP0=0, select bank0
  1468  0075  1303               	bcf	3,6	;RP1=0, select bank0
  1469  0076  0093               	movwf	19	;volatile
  1470  0077                     i1l917:
  1471                           
  1472                           ;main.c: 91:             SSPCONbits.CKP = 1;
  1473  0077  1614               	bsf	20,4	;volatile
  1474                           
  1475                           ;main.c: 92:             _delay((unsigned long)((200)*(8000000/4000000.0)));
  1476  0078  3085               	movlw	133
  1477  0079  00F8               	movwf	??_isr
  1478  007A                     u90_27:
  1479  007A  0BF8               	decfsz	??_isr,f
  1480  007B  287A               	goto	u90_27
  1481  007C                     i1l91:	
  1482                           ;main.c: 93:             while(SSPSTATbits.BF);
  1483                           
  1484  007C  1683               	bsf	3,5	;RP0=1, select bank1
  1485  007D  1303               	bcf	3,6	;RP1=0, select bank1
  1486  007E  1814               	btfsc	20,0	;volatile
  1487  007F  2881               	goto	u17_21
  1488  0080  2882               	goto	u17_20
  1489  0081                     u17_21:
  1490  0081  287C               	goto	i1l91
  1491  0082                     u17_20:
  1492  0082                     i1l89:
  1493                           
  1494                           ;main.c: 96:         PIR1bits.SSPIF = 0;
  1495  0082  1283               	bcf	3,5	;RP0=0, select bank0
  1496  0083  1303               	bcf	3,6	;RP1=0, select bank0
  1497  0084  118C               	bcf	12,3	;volatile
  1498  0085                     i1l94:
  1499  0085  087A               	movf	??_isr+2,w
  1500  0086  008A               	movwf	10
  1501  0087  0E79               	swapf	??_isr+1,w
  1502  0088  0083               	movwf	3
  1503  0089  0EFE               	swapf	btemp,f
  1504  008A  0E7E               	swapf	btemp,w
  1505  008B  0009               	retfie
  1506  008C                     __end_of_isr:
  1507  007E                     btemp	set	126	;btemp
  1508  007E                     wtemp0	set	126
  1509                           
  1510                           	psect	intentry
  1511  0004                     __pintentry:	
  1512                           ;incstack = 0
  1513                           ; Regs used in _isr: [wreg]
  1514                           
  1515  0004                     interrupt_function:
  1516  007E                     saved_w	set	btemp
  1517  0004  00FE               	movwf	btemp
  1518  0005  0E03               	swapf	3,w
  1519  0006  00F9               	movwf	??_isr+1
  1520  0007  080A               	movf	10,w
  1521  0008  00FA               	movwf	??_isr+2
  1522  0009  120A  118A  2829   	ljmp	_isr
  1523                           
  1524                           	psect	config
  1525                           
  1526                           ;Config register CONFIG1 @ 0x2007
  1527                           ;	Oscillator Selection bits
  1528                           ;	FOSC = INTRC_NOCLKOUT, INTOSCIO oscillator: I/O function on RA6/OSC2/CLKOUT pin, I/O f
      +                          unction on RA7/OSC1/CLKIN
  1529                           ;	Watchdog Timer Enable bit
  1530                           ;	WDTE = OFF, WDT disabled and can be enabled by SWDTEN bit of the WDTCON register
  1531                           ;	Power-up Timer Enable bit
  1532                           ;	PWRTE = OFF, PWRT disabled
  1533                           ;	RE3/MCLR pin function select bit
  1534                           ;	MCLRE = OFF, RE3/MCLR pin function is digital input, MCLR internally tied to VDD
  1535                           ;	Code Protection bit
  1536                           ;	CP = OFF, Program memory code protection is disabled
  1537                           ;	Data Code Protection bit
  1538                           ;	CPD = OFF, Data memory code protection is disabled
  1539                           ;	Brown Out Reset Selection bits
  1540                           ;	BOREN = OFF, BOR disabled
  1541                           ;	Internal External Switchover bit
  1542                           ;	IESO = OFF, Internal/External Switchover mode is disabled
  1543                           ;	Fail-Safe Clock Monitor Enabled bit
  1544                           ;	FCMEN = OFF, Fail-Safe Clock Monitor is disabled
  1545                           ;	Low Voltage Programming Enable bit
  1546                           ;	LVP = OFF, RB3 pin has digital I/O, HV on MCLR must be used for programming
  1547                           ;	In-Circuit Debugger Mode bit
  1548                           ;	DEBUG = 0x1, unprogrammed default
  1549  2007                     	org	8199
  1550  2007  20D4               	dw	8404
  1551                           
  1552                           ;Config register CONFIG2 @ 0x2008
  1553                           ;	Brown-out Reset Selection bit
  1554                           ;	BOR4V = BOR40V, Brown-out Reset set to 4.0V
  1555                           ;	Flash Program Memory Self Write Enable bits
  1556                           ;	WRT = OFF, Write protection off
  1557  2008                     	org	8200
  1558  2008  3FFF               	dw	16383

Data Sizes:
    Strings     0
    Constant    0
    Data        0
    BSS         20
    Persistent  0
    Stack       0

Auto Spaces:
    Space          Size  Autos    Used
    COMMON           14      3      11
    BANK0            80      3      15
    BANK1            80      0       0
    BANK3            96      0       0
    BANK2            96      0       0

Pointer List with Targets:

    None.

Critical Paths under _main in COMMON

    None.

Critical Paths under _isr in COMMON

    None.

Critical Paths under _main in BANK0

    _setup->_osc_config

Critical Paths under _isr in BANK0

    None.

Critical Paths under _main in BANK1

    None.

Critical Paths under _isr in BANK1

    None.

Critical Paths under _main in BANK3

    None.

Critical Paths under _isr in BANK3

    None.

Critical Paths under _main in BANK2

    None.

Critical Paths under _isr in BANK2

    None.

Call Graph Tables:

 ---------------------------------------------------------------------------------
 (Depth) Function   	        Calls       Base Space   Used Autos Params    Refs
 ---------------------------------------------------------------------------------
 (0) _main                                                 0     0      0      44
                        _infrarrojos
                              _setup
 ---------------------------------------------------------------------------------
 (1) _setup                                                0     0      0      44
                         _ADC_config
                     _I2C_Slave_Init
                         _osc_config
 ---------------------------------------------------------------------------------
 (2) _osc_config                                           3     3      0      22
                                              0 BANK0      3     3      0
 ---------------------------------------------------------------------------------
 (2) _I2C_Slave_Init                                       1     1      0      22
                                              0 BANK0      1     1      0
 ---------------------------------------------------------------------------------
 (2) _ADC_config                                           1     1      0       0
                                              0 BANK0      1     1      0
 ---------------------------------------------------------------------------------
 (1) _infrarrojos                                          2     2      0       0
                                              0 BANK0      2     2      0
 ---------------------------------------------------------------------------------
 Estimated maximum stack depth 2
 ---------------------------------------------------------------------------------
 (Depth) Function   	        Calls       Base Space   Used Autos Params    Refs
 ---------------------------------------------------------------------------------
 (3) _isr                                                  3     3      0       0
                                              0 COMMON     3     3      0
 ---------------------------------------------------------------------------------
 Estimated maximum stack depth 3
 ---------------------------------------------------------------------------------

 Call Graph Graphs:

 _main (ROOT)
   _infrarrojos
   _setup
     _ADC_config
     _I2C_Slave_Init
     _osc_config

 _isr (ROOT)

 Address spaces:
Name               Size   Autos  Total    Cost      Usage
BITCOMMON            E      0       0       0        0.0%
EEDATA             100      0       0       0        0.0%
NULL                 0      0       0       0        0.0%
CODE                 0      0       0       0        0.0%
COMMON               E      3       B       1       78.6%
BITSFR0              0      0       0       1        0.0%
SFR0                 0      0       0       1        0.0%
BITSFR1              0      0       0       2        0.0%
SFR1                 0      0       0       2        0.0%
STACK                0      0       0       2        0.0%
ABS                  0      0      1A       3        0.0%
BITBANK0            50      0       0       4        0.0%
BITSFR3              0      0       0       4        0.0%
SFR3                 0      0       0       4        0.0%
BANK0               50      3       F       5       18.8%
BITSFR2              0      0       0       5        0.0%
SFR2                 0      0       0       5        0.0%
BITBANK1            50      0       0       6        0.0%
BANK1               50      0       0       7        0.0%
BITBANK3            60      0       0       8        0.0%
BANK3               60      0       0       9        0.0%
BITBANK2            60      0       0      10        0.0%
BANK2               60      0       0      11        0.0%
DATA                 0      0      1A      12        0.0%


Microchip Technology PIC Macro Assembler V2.32 build 20210201212658 
Symbol Table                                                                                   Tue Aug 24 13:47:15 2021

            _SSPSTATbits 0094                       _BF 04A0                      l110 00DE  
                    l112 00ED                      l105 0122                      l114 00FC  
                    l108 00CF                      l129 00C4                      l184 013E  
                    l193 0154                      _GIE 005F                      u820 00CB  
                    u821 00CA                      u830 00D3                      u831 00D2  
                    u840 00DA                      u841 00D9                      u850 00E2  
                    u851 00E1                      u860 00E9                      u861 00E8  
                    u870 00F1                      u871 00F0                      u887 014E  
                    _isr 0029      __size_of_ADC_config 0016                     l1301 0137  
                   l1303 0138                     l1311 0102                     l1305 013B  
                   l1321 0109                     l1313 0105                     l1331 00CB  
                   l1323 0111                     l1315 0106                     l1307 00FD  
                   l1341 00E2                     l1333 00D3                     l1261 0096  
                   l1325 0117                     l1317 0107                     l1309 0101  
                   l1351 00F3                     l1343 00E4                     l1335 00D5  
                   l1271 00A8                     l1263 0098                     l1327 011C  
                   l1319 0108                     l1353 00F4                     l1345 00E5  
                   l1337 00D6                     l1329 00C5                     l1273 00AC  
                   l1265 009E                     l1257 008F                     l1347 00E9  
                   l1339 00DA                     l1291 0151                     l1267 00A0  
                   l1259 0090                     l1355 0155                     l1349 00F1  
                   l1285 013F                     l1293 0126                     l1269 00A6  
                   l1277 00AE                     l1357 015A                     l1287 0144  
                   l1295 0134                     l1289 014A                     l1297 0135  
                   l1299 0136                     l1389 00B6                     ?_isr 0078  
                   _PEIE 005E                     i1l91 007C                     i1l85 0062  
                   i1l86 0051                     i1l94 0085                     i1l89 0082  
                   u9_20 002F                     u9_21 002E                     _main 0155  
                   btemp 007E                     start 000C           osc_config@freq 002E  
                  ??_isr 0078             ?_infrarrojos 0078                    ?_main 0078  
                  _ANSEL 0188                    i1l901 0045                    i1l911 0066  
                  i1l903 0049                    i1l913 006A                    i1l905 004F  
                  i1l915 0070                    i1l907 0050                    i1l917 0077  
                  i1l909 0057                    i1l891 0038                    i1l893 003C  
                  i1l885 0029                    i1l895 003D                    i1l887 002F  
                  i1l897 003E                    i1l889 0034                    i1l899 003F  
                  u10_20 0034                    u10_21 0033                    u11_20 0038  
                  u11_21 0037                    u12_20 0045                    u12_21 0044  
                  u13_20 0049                    u13_21 0048                    u14_20 0057  
                  u14_21 0056                    u15_20 0066                    u15_21 0065  
                  u16_20 006A                    u16_21 0069                    u17_20 0082  
                  u17_21 0081                    _PORTB 0006                    _PORTD 0008  
                  _PORTE 0009                    _TRISC 0087                    _TRISD 0088  
                  _SSPIE 0463                    _SSPIF 0063                    u90_27 007A  
                  u89_27 005F                    _setup 00FD                    pclath 000A  
                  status 0003                    wtemp0 007E          __initialization 000F  
           __end_of_main 0163                   ??_main 007B                   _ADRESH 001E  
                 _ADRESL 009E                   _BASURA 0071        _temperatura_aprox 0020  
                 ?_setup 0078                   _ANSELH 0189                   _SSPADD 0093  
                 _TRISC3 043B                   _TRISC4 043C                   _SSPBUF 0013  
                 _SSPCON 0014             ??_ADC_config 002C                   saved_w 007E  
     __end_of_ADC_config 0155  __end_of__initialization 0025           __pcstackCOMMON 0078  
__size_of_I2C_Slave_Init 001C            __end_of_setup 0123     __size_of_infrarrojos 0038  
                ??_setup 007B    I2C_Slave_Init@address 002C               __pbssBANK0 0020  
        _abierto_cerrado 0072               __pmaintext 0155               __pintentry 0004  
                _PARQUEO 0070                  _SSPCON2 0091                  _SSPSTAT 0094  
              _ANSELbits 0188                  __ptext1 00FD                  __ptext2 008C  
                __ptext3 0123                  __ptext4 013F                  __ptext5 00C5  
                __ptext6 0029             __size_of_isr 0063                  _suma_ir 0073  
   end_of_initialization 0025               _osc_config 008C           _I2C_Slave_Init 0123  
              _PORTBbits 0006                _PORTDbits 0008                _TRISAbits 0085  
              _TRISBbits 0086                _TRISCbits 0087                _TRISEbits 0089  
 __end_of_I2C_Slave_Init 013F      start_initialization 000F              __end_of_isr 008C  
            ?_osc_config 0078          ?_I2C_Slave_Init 0078            ??_infrarrojos 002C  
            __pbssCOMMON 0070                ___latbits 0002            __pcstackBANK0 002C  
    __size_of_osc_config 0039      __end_of_infrarrojos 00FD           __size_of_setup 0026  
      interrupt_function 0004         _conversion_total 0024                 _PIR1bits 000C  
            _antirrebote 0077               _ADCON0bits 001F               _ADCON1bits 009F  
            _conversion1 0028               _ADC_config 013F              _infrarrojo1 0076  
            _infrarrojo2 0075              _infrarrojo3 0074              _infrarrojos 00C5  
       ??_I2C_Slave_Init 007B             ??_osc_config 002C            __size_of_main 000E  
     __end_of_osc_config 00C5                 intlevel1 0000               _OSCCONbits 008F  
            ?_ADC_config 0078              _SSPCON2bits 0091               _SSPCONbits 0014  
