Microchip MPLAB XC8 Compiler V2.32

Linker command line:

-W-3 --edf=C:\Program Files\Microchip\xc8\v2.32\pic\dat\en_msgs.txt -cn \
  -h+dist/default/production\Proyecto_Master.X.production.sym \
  --cmf=dist/default/production\Proyecto_Master.X.production.cmf -z \
  -Q16F887 -oC:\Users\user\AppData\Local\Temp\xcAs27k.4 \
  --defsym=__MPLAB_BUILD=1 \
  -Mdist/default/production/Proyecto_Master.X.production.map -E1 \
  -ver=XC8 Compiler --acfsm=1493 -ASTACK=0110h-016Fh -pstack=STACK \
  -ACODE=00h-07FFhx4 -ASTRCODE=00h-01FFFh -ASTRING=00h-0FFhx32 \
  -ACONST=00h-0FFhx32 -AENTRY=00h-0FFhx32 -ACOMMON=070h-07Fh \
  -ABANK0=020h-06Fh -ABANK1=0A0h-0EFh -ABANK2=0110h-016Fh \
  -ABANK3=0190h-01EFh -ARAM=020h-06Fh,0A0h-0EFh,0110h-016Fh,0190h-01EFh \
  -AABS1=020h-07Fh,0A0h-0EFh,0110h-016Fh,0190h-01EFh -ASFR0=00h-01Fh \
  -ASFR1=080h-09Fh -ASFR2=0100h-010Fh -ASFR3=0180h-018Fh \
  -ACONFIG=02007h-02008h -DCONFIG=2 -AIDLOC=02000h-02003h -DIDLOC=2 \
  -AEEDATA=00h-0FFh/02100h -peeprom_data=EEDATA -DEEDATA=2 -DCODE=2 \
  -DSTRCODE=2 -DSTRING=2 -DCONST=2 -DENTRY=2 \
  -preset_vec=00h,intentry=04h,init,end_init -ppowerup=CODE -pcinit=CODE \
  -pfunctab=ENTRY -k C:\Users\user\AppData\Local\Temp\xcAs27k.o \
  dist/default/production\Proyecto_Master.X.production.o 

Object code version is 3.11

Machine type is 16F887



                Name                               Link     Load   Length Selector   Space Scale
C:\Users\user\AppData\Local\Temp\xcAs27k.o
                end_init                              C        C        3        8       0
                reset_vec                             0        0        3        0       0
                config                             2007     2007        2        0       4
dist/default/production\Proyecto_Master.X.production.o
                cinit                                 F        F       18        8       0
                intentry                              4        4        8        8       0
                config                             2007     2007        2        0       4
                text24                              F6A      F6A       2F     1ED4       0
                text23                              EC3      EC3       15     1D86       0
                text22                              77A      77A       3F        8       0
                text21                              201      201      1AA        8       0
                text20                              E8D      E8D        6     1D1A       0
                text19                              EEE      EEE       18     1DDC       0
                text18                              F06      F06       19     1E0C       0
                text17                              F44      F44       26     1E88       0
                text16                              EAF      EAF       14     1D5E       0
                text15                              F1F      F1F       25     1E3E       0
                text14                              54A      54A       8B        8       0
                text13                              64E      64E       69        8       0
                text12                              71F      71F       5B        8       0
                text11                              5D5      5D5       79        8       0
                text10                              6B7      6B7       68        8       0
                text9                               7B9      7B9       3A        8       0
                text8                               7F3      7F3        D        8       0
                text7                               F99      F99       30     1F32       0
                text6                               E93      E93        9     1D26       0
                text5                               E9C      E9C        9     1D38       0
                text4                               EA5      EA5        A     1D4A       0
                text3                               FC9      FC9       37     1F92       0
                text2                               ED8      ED8       16     1DB0       0
                text1                               3AB      3AB      19F        8       0
                maintext                             27       27      1DA        8       0
                cstackBANK0                          20       20       22       20       1
                cstackCOMMON                         70       70        8       70       1
                bssBANK0                             42       42        F       20       1
                bssCOMMON                            78       78        3       70       1

TOTAL           Name                               Link     Load   Length     Space
        CLASS   STACK          

        CLASS   CODE           
                end_init                              C        C        3         0
                cinit                                 F        F       18         0
                intentry                              4        4        8         0
                reset_vec                             0        0        3         0
                text24                              F6A      F6A       2F         0
                text23                              EC3      EC3       15         0
                text22                              77A      77A       3F         0
                text21                              201      201      1AA         0
                text20                              E8D      E8D        6         0
                text19                              EEE      EEE       18         0
                text18                              F06      F06       19         0
                text17                              F44      F44       26         0
                text16                              EAF      EAF       14         0
                text15                              F1F      F1F       25         0
                text14                              54A      54A       8B         0
                text13                              64E      64E       69         0
                text12                              71F      71F       5B         0
                text11                              5D5      5D5       79         0
                text10                              6B7      6B7       68         0
                text9                               7B9      7B9       3A         0
                text8                               7F3      7F3        D         0
                text7                               F99      F99       30         0
                text6                               E93      E93        9         0
                text5                               E9C      E9C        9         0
                text4                               EA5      EA5        A         0
                text3                               FC9      FC9       37         0
                text2                               ED8      ED8       16         0
                text1                               3AB      3AB      19F         0
                maintext                             27       27      1DA         0

        CLASS   STRCODE        

        CLASS   STRING         

        CLASS   CONST          

        CLASS   ENTRY          

        CLASS   COMMON         
                cstackCOMMON                         70       70        8         1
                bssCOMMON                            78       78        3         1

        CLASS   BANK0          
                cstackBANK0                          20       20       22         1
                bssBANK0                             42       42        F         1

        CLASS   BANK1          

        CLASS   BANK2          

        CLASS   BANK3          

        CLASS   RAM            

        CLASS   ABS1           
                abs_s1                               7E       7E        2         1

        CLASS   SFR0           

        CLASS   SFR1           

        CLASS   SFR2           

        CLASS   SFR3           

        CLASS   CONFIG         
                config                             2007     2007        2         4

        CLASS   IDLOC          

        CLASS   EEDATA         



SEGMENTS        Name                           Load    Length   Top    Selector   Space  Class     Delta

                reset_vec                      000000  000003  000003         0       0  CODE        2
                intentry                       000004  0007FC  000800         8       0  CODE        2
                cstackBANK0                    000020  000031  000051        20       1  BANK0       1
                cstackCOMMON                   000070  00000B  00007B        70       1  COMMON      1
                text20                         000E8D  000006  000E93      1D1A       0  CODE        2
                text6                          000E93  000009  000E9C      1D26       0  CODE        2
                text5                          000E9C  000009  000EA5      1D38       0  CODE        2
                text4                          000EA5  00000A  000EAF      1D4A       0  CODE        2
                text16                         000EAF  000014  000EC3      1D5E       0  CODE        2
                text23                         000EC3  000015  000ED8      1D86       0  CODE        2
                text2                          000ED8  000016  000EEE      1DB0       0  CODE        2
                text19                         000EEE  000018  000F06      1DDC       0  CODE        2
                text18                         000F06  000019  000F1F      1E0C       0  CODE        2
                text15                         000F1F  000025  000F44      1E3E       0  CODE        2
                text17                         000F44  000026  000F6A      1E88       0  CODE        2
                text24                         000F6A  00002F  000F99      1ED4       0  CODE        2
                text7                          000F99  000030  000FC9      1F32       0  CODE        2
                text3                          000FC9  000037  001000      1F92       0  CODE        2


UNUSED ADDRESS RANGES

        Name                Unused          Largest block    Delta
        BANK0            0051-006F             1F           1
        BANK1            00A0-00EF             50           1
        BANK2            0110-016F             60           1
        BANK3            0190-01EF             60           1
        CODE             0003-0003              1           2
                         0800-0E8C            68D
                         1000-1FFF            800
        COMMON           007B-007D              3           1
        CONST            0003-0003              1           2
                         0800-0E8C            100
                         1000-1FFF            100
        EEDATA           2100-21FF            100           2
        ENTRY            0003-0003              1           2
                         0800-0E8C            100
                         1000-1FFF            100
        IDLOC            2000-2003              4           2
        RAM              0051-006F             1F           1
                         00A0-00EF             50
                         0110-016F             60
                         0190-01EF             60
        SFR0             0000-001F             20           1
        SFR1             0080-009F             20           1
        SFR2             0100-010F             10           1
        SFR3             0180-018F             10           1
        STACK            0110-016F             60           1
        STRCODE          0003-0003              1           2
                         0800-0E8C            68D
                         1000-1FFF           1000
        STRING           0003-0003              1           2
                         0800-0E8C            100
                         1000-1FFF            100

                                  Symbol Table

?_I2C_Master_Read          cstackCOMMON 0073
?___awdiv                  cstackCOMMON 0073
?___awmod                  cstackBANK0  0024
?___lldiv                  cstackBANK0  0020
I2C_Master_Init@c          cstackBANK0  002D
I2C_Master_Read@a          cstackCOMMON 0073
I2C_Master_Read@temp       cstackBANK0  0020
I2C_Master_Write@d         cstackCOMMON 0073
Lcd_Cmd@a                  cstackCOMMON 0076
Lcd_Port@a                 cstackCOMMON 0073
Lcd_Set_Cursor@a           cstackBANK0  0021
Lcd_Set_Cursor@b           cstackCOMMON 0077
Lcd_Set_Cursor@temp        cstackBANK0  0022
Lcd_Write_Char@a           cstackCOMMON 0075
Lcd_Write_String@a         cstackBANK0  0022
Lcd_Write_String@i         cstackBANK0  0020
_ANSEL                     (abs)        0188
_ANSELH                    (abs)        0189
_BASURA                    bssBANK0     004E
_BAUDCTLbits               (abs)        0187
_C1                        bssBANK0     004B
_C2                        bssBANK0     004A
_C3                        bssBANK0     0049
_CERRADO                   bssBANK0     0044
_DH                        bssBANK0     0047
_DIA                       bssCOMMON    007A
_DM                        bssBANK0     0045
_GIE                       (abs)        005F
_HORA                      bssBANK0     004D
_I2C_Master_Init           text9        07B9
_I2C_Master_Read           text7        0F99
_I2C_Master_Start          text6        0E93
_I2C_Master_Stop           text5        0E9C
_I2C_Master_Wait           text8        07F3
_I2C_Master_Write          text4        0EA5
_ISR                       text23       0EC3
_LECT1                     text21       0201
_Lcd_Cmd                   text19       0EEE
_Lcd_Init                  text18       0F06
_Lcd_Port                  text20       0E8D
_Lcd_Set_Cursor            text17       0F44
_Lcd_Write_Char            text16       0EAF
_Lcd_Write_String          text15       0F1F
_MIN                       bssCOMMON    0079
_NUM                       bssBANK0     004F
_OSCCONbits                (abs)        008F
_PARKH                     bssBANK0     0050
_PEIE                      (abs)        005E
_PIE1bits                  (abs)        008C
_PIR1bits                  (abs)        000C
_PORTA                     (abs)        0005
_PORTB                     (abs)        0006
_PORTD                     (abs)        0008
_PORTEbits                 (abs)        0009
_RCSTAbits                 (abs)        0018
_SPBRG                     (abs)        0099
_SPBRGH                    (abs)        009A
_SSPADD                    (abs)        0093
_SSPBUF                    (abs)        0013
_SSPCON                    (abs)        0014
_SSPCON2                   (abs)        0091
_SSPCON2bits               (abs)        0091
_SSPIE                     (abs)        0463
_SSPIF                     (abs)        0063
_SSPSTAT                   (abs)        0094
_TRISA                     (abs)        0085
_TRISB                     (abs)        0086
_TRISC3                    (abs)        043B
_TRISC4                    (abs)        043C
_TRISCbits                 (abs)        0087
_TRISD                     (abs)        0088
_TRISE                     (abs)        0089
_TXREG                     (abs)        0019
_TXSTAbits                 (abs)        0098
_UH                        bssBANK0     0048
_UM                        bssBANK0     0046
__Habs1                    abs1         0000
__Hbank0                   bank0        0000
__Hbank1                   bank1        0000
__Hbank2                   bank2        0000
__Hbank3                   bank3        0000
__HbssBANK0                bssBANK0     0000
__HbssCOMMON               bssCOMMON    0000
__Hcinit                   cinit        0027
__Hclrtext                 clrtext      0000
__Hcode                    code         0000
__Hcommon                  common       0000
__Hconfig                  config       2009
__HcstackBANK0             cstackBANK0  0000
__HcstackCOMMON            cstackCOMMON 0000
__Heeprom_data             eeprom_data  0000
__Hend_init                end_init     000F
__Hfunctab                 functab      0000
__Hinit                    init         000C
__Hintentry                intentry     000C
__Hmaintext                maintext     0000
__Hpowerup                 powerup      0000
__Hram                     ram          0000
__Hreset_vec               reset_vec    0003
__Hsfr0                    sfr0         0000
__Hsfr1                    sfr1         0000
__Hsfr2                    sfr2         0000
__Hsfr3                    sfr3         0000
__Hspace_0                 (abs)        1000
__Hspace_1                 (abs)        007B
__Hspace_2                 (abs)        0000
__Hspace_3                 (abs)        0000
__Hspace_4                 (abs)        4010
__Hstack                   stack        0000
__Hstrings                 strings      0000
__Htext                    text         0000
__Labs1                    abs1         0000
__Lbank0                   bank0        0000
__Lbank1                   bank1        0000
__Lbank2                   bank2        0000
__Lbank3                   bank3        0000
__LbssBANK0                bssBANK0     0000
__LbssCOMMON               bssCOMMON    0000
__Lcinit                   cinit        000F
__Lclrtext                 clrtext      0000
__Lcode                    code         0000
__Lcommon                  common       0000
__Lconfig                  config       0000
__LcstackBANK0             cstackBANK0  0000
__LcstackCOMMON            cstackCOMMON 0000
__Leeprom_data             eeprom_data  0000
__Lend_init                end_init     000C
__Lfunctab                 functab      0000
__Linit                    init         000C
__Lintentry                intentry     0004
__Lmaintext                maintext     0000
__Lpowerup                 powerup      0000
__Lram                     ram          0000
__Lreset_vec               reset_vec    0000
__Lsfr0                    sfr0         0000
__Lsfr1                    sfr1         0000
__Lsfr2                    sfr2         0000
__Lsfr3                    sfr3         0000
__Lspace_0                 (abs)        0000
__Lspace_1                 (abs)        0000
__Lspace_2                 (abs)        0000
__Lspace_3                 (abs)        0000
__Lspace_4                 (abs)        0000
__Lstack                   stack        0000
__Lstrings                 strings      0000
__Ltext                    text         0000
__S0                       (abs)        1000
__S1                       (abs)        007B
__S2                       (abs)        0000
__S3                       (abs)        0000
___awdiv                   text13       064E
___awdiv@counter           cstackBANK0  0020
___awdiv@dividend          cstackCOMMON 0075
___awdiv@divisor           cstackCOMMON 0073
___awdiv@quotient          cstackBANK0  0022
___awdiv@sign              cstackBANK0  0021
___awmod                   text12       071F
___awmod@counter           cstackBANK0  0029
___awmod@dividend          cstackBANK0  0026
___awmod@divisor           cstackBANK0  0024
___awmod@sign              cstackBANK0  002A
___int_sp                  stack        0000
___latbits                 (abs)        0002
___lldiv                   text10       06B7
___lldiv@counter           cstackBANK0  002C
___lldiv@dividend          cstackBANK0  0024
___lldiv@divisor           cstackBANK0  0020
___lldiv@quotient          cstackBANK0  0028
___sp                      stack        0000
___stackhi                 (abs)        0000
___stacklo                 (abs)        0000
__end_of_I2C_Master_Init   text9        07F3
__end_of_I2C_Master_Read   text7        0FC9
__end_of_I2C_Master_Start  text6        0E9C
__end_of_I2C_Master_Stop   text5        0EA5
__end_of_I2C_Master_Wait   text8        0800
__end_of_I2C_Master_Write  text4        0EAF
__end_of_ISR               text23       0ED8
__end_of_LECT1             text21       03AB
__end_of_Lcd_Cmd           text19       0F06
__end_of_Lcd_Init          text18       0F1F
__end_of_Lcd_Port          text20       0E93
__end_of_Lcd_Set_Cursor    text17       0F6A
__end_of_Lcd_Write_Char    text16       0EC3
__end_of_Lcd_Write_String  text15       0F44
__end_of___awdiv           text13       06B7
__end_of___awmod           text12       077A
__end_of___lldiv           text10       071F
__end_of__initialization   cinit        0023
__end_of_conver            text14       05D5
__end_of_conver1           text11       064E
__end_of_envio             text24       0F99
__end_of_main              maintext     0201
__end_of_num_ascii         text22       07B9
__end_of_osc_config        text3        1000
__end_of_setup             text1        054A
__end_of_uart_config       text2        0EEE
__initialization           cinit        000F
__pbssBANK0                bssBANK0     0042
__pbssCOMMON               bssCOMMON    0078
__pcstackBANK0             cstackBANK0  0020
__pcstackCOMMON            cstackCOMMON 0070
__pintentry                intentry     0004
__pmaintext                maintext     0027
__ptext1                   text1        03AB
__ptext10                  text10       06B7
__ptext11                  text11       05D5
__ptext12                  text12       071F
__ptext13                  text13       064E
__ptext14                  text14       054A
__ptext15                  text15       0F1F
__ptext16                  text16       0EAF
__ptext17                  text17       0F44
__ptext18                  text18       0F06
__ptext19                  text19       0EEE
__ptext2                   text2        0ED8
__ptext20                  text20       0E8D
__ptext21                  text21       0201
__ptext22                  text22       077A
__ptext23                  text23       0EC3
__ptext24                  text24       0F6A
__ptext3                   text3        0FC9
__ptext4                   text4        0EA5
__ptext5                   text5        0E9C
__ptext6                   text6        0E93
__ptext7                   text7        0F99
__ptext8                   text8        07F3
__ptext9                   text9        07B9
__size_of_I2C_Master_Init  (abs)        0000
__size_of_I2C_Master_Read  (abs)        0000
__size_of_I2C_Master_Start (abs)        0000
__size_of_I2C_Master_Stop  (abs)        0000
__size_of_I2C_Master_Wait  (abs)        0000
__size_of_I2C_Master_Write (abs)        0000
__size_of_ISR              (abs)        0000
__size_of_LECT1            (abs)        0000
__size_of_Lcd_Cmd          (abs)        0000
__size_of_Lcd_Init         (abs)        0000
__size_of_Lcd_Port         (abs)        0000
__size_of_Lcd_Set_Cursor   (abs)        0000
__size_of_Lcd_Write_Char   (abs)        0000
__size_of_Lcd_Write_String (abs)        0000
__size_of___awdiv          (abs)        0000
__size_of___awmod          (abs)        0000
__size_of___lldiv          (abs)        0000
__size_of_conver           (abs)        0000
__size_of_conver1          (abs)        0000
__size_of_envio            (abs)        0000
__size_of_main             (abs)        0000
__size_of_num_ascii        (abs)        0000
__size_of_osc_config       (abs)        0000
__size_of_setup            (abs)        0000
__size_of_uart_config      (abs)        0000
_con                       bssCOMMON    0078
_conver                    text14       054A
_conver1                   text11       05D5
_envio                     text24       0F6A
_main                      maintext     0027
_num_ascii                 text22       077A
_osc_config                text3        0FC9
_setup                     text1        03AB
_temperatura               bssBANK0     0042
_toggleTX                  bssBANK0     0043
_uart_config               text2        0ED8
btemp                      (abs)        007E
conver1@temporal           cstackBANK0  002E
conver@temporal            cstackBANK0  0020
conver@temporal_275        cstackBANK0  0030
end_of_initialization      cinit        0023
interrupt_function         intentry     0004
intlevel0                  functab      0000
intlevel1                  functab      0000
intlevel2                  functab      0000
intlevel3                  functab      0000
intlevel4                  functab      0000
intlevel5                  functab      0000
num_ascii@num              cstackCOMMON 0075
osc_config@freq            cstackCOMMON 0075
reset_vec                  reset_vec    0000
saved_w                    (abs)        007E
start                      init         000C
start_initialization       cinit        000F
wtemp0                     (abs)        007E


MODULE INFORMATION

Module		Function		Class		Link	Load	Size
UART_CONFIG.c
		_uart_config   		CODE           	0ED8	0000	22

UART_CONFIG.c estimated size: 22

Osc_config.c
		_osc_config    		CODE           	0FC9	0000	55

Osc_config.c estimated size: 55

I2C.c
		_I2C_Master_Read		CODE           	0F99	0000	48
		_I2C_Master_Wait		CODE           	07F3	0000	13
		_I2C_Master_Init		CODE           	07B9	0000	58
		_I2C_Master_Stop		CODE           	0E9C	0000	9
		_I2C_Master_Write		CODE           	0EA5	0000	10
		_I2C_Master_Start		CODE           	0E93	0000	9

I2C.c estimated size: 147

C:\Program Files\Microchip\xc8\v2.32\pic\sources\c90\common\awmod.c
		___awmod       		CODE           	071F	0000	91

C:\Program Files\Microchip\xc8\v2.32\pic\sources\c90\common\awmod.c estimated size: 91

shared
		__initialization		CODE           	000F	0000	20

shared estimated size: 20

C:\Program Files\Microchip\xc8\v2.32\pic\sources\c90\common\awdiv.c
		___awdiv       		CODE           	064E	0000	105

C:\Program Files\Microchip\xc8\v2.32\pic\sources\c90\common\awdiv.c estimated size: 105

main.c
		_ISR           		CODE           	0EC3	0000	21
		_main          		CODE           	0027	0000	474
		_conver1       		CODE           	05D5	0000	121
		_envio         		CODE           	0F6A	0000	47
		_setup         		CODE           	03AB	0000	415
		_LECT1         		CODE           	0201	0000	426
		_conver        		CODE           	054A	0000	139

main.c estimated size: 1643

ASCII.c
		_num_ascii     		CODE           	077A	0000	63

ASCII.c estimated size: 63

C:\Program Files\Microchip\xc8\v2.32\pic\sources\c90\common\__lldiv.c
		___lldiv       		CODE           	06B7	0000	104

C:\Program Files\Microchip\xc8\v2.32\pic\sources\c90\common\__lldiv.c estimated size: 104

LCD.c
		_Lcd_Write_String		CODE           	0F1F	0000	37
		_Lcd_Init      		CODE           	0F06	0000	25
		_Lcd_Write_Char		CODE           	0EAF	0000	20
		_Lcd_Cmd       		CODE           	0EEE	0000	24
		_Lcd_Set_Cursor		CODE           	0F44	0000	38
		_Lcd_Port      		CODE           	0E8D	0000	6

LCD.c estimated size: 150

